target datalayout = "e-m:e-p270:32:32-p271:32:32-p272:64:64-i64:64-i128:128-f80:128-n8:16:32:64-S128"
target triple = "x86_64-pc-linux-gnu"

%struct.Abc_Obj_t_ = type { ptr, ptr, i32, i32, %struct.Vec_Int_t_, %struct.Vec_Int_t_, %union.anon.1, %union.anon.2 }
%struct.Vec_Int_t_ = type { i32, i32, ptr }
%union.anon.1 = type { ptr }
%union.anon.2 = type { ptr }
%struct.Vec_Ptr_t_ = type { i32, i32, ptr }
%struct.Abc_Ntk_t_ = type { i32, i32, ptr, ptr, ptr, ptr, ptr, ptr, ptr, ptr, ptr, ptr, ptr, [11 x i32], i32, i32, i32, i32, ptr, i32, ptr, ptr, i32, i32, i32, double, i32, %struct.Vec_Int_t_, ptr, ptr, ptr, ptr, ptr, float, i32, ptr, ptr, ptr, ptr, ptr, ptr, ptr, ptr, ptr, ptr, ptr, ptr, ptr, ptr, ptr, ptr, ptr, ptr, ptr, ptr, ptr }
%struct.Aig_Man_t_ = type { ptr, ptr, ptr, ptr, ptr, ptr, ptr, %struct.Aig_Obj_t_, i32, i32, i32, i32, i32, i32, [7 x i32], i32, ptr, i32, ptr, i32, ptr, i32, i32, i32, ptr, i32, i32, i32, i32, i32, ptr, ptr, i32, ptr, ptr, i32, ptr, ptr, i32, i32, i32, ptr, ptr, ptr, ptr, ptr, ptr, ptr, ptr, ptr, ptr, ptr, ptr, ptr, ptr, i32, ptr, ptr, ptr, ptr, i32, i64, i64, i64, ptr, ptr }
%struct.Aig_Obj_t_ = type { %union.anon, ptr, ptr, i64, i32, i32, %union.anon.0 }
%union.anon = type { ptr }
%union.anon.0 = type { ptr }
%struct.Ssw_Pars_t_ = type { i32, i32, i32, i32, i32, i32, i32, i32, i32, i32, i32, i32, i32, i32, i32, i32, i32, i32, i32, i32, i32, i32, i32, i32, i32, i32, i32, i32, i32, i32, i32, i32, i32, i32, i32, i32, i32, i32, i32, i32, ptr, ptr }

; Function Attrs: nounwind uwtable
define internal ptr @Vec_PtrEntry(ptr noundef %0, i32 noundef %1) #0 {
  %3 = alloca ptr, align 8
  %4 = alloca i32, align 4
  store ptr %0, ptr %3, align 8
  store i32 %1, ptr %4, align 4
  %5 = load ptr, ptr %3, align 8
  %6 = getelementptr inbounds %struct.Vec_Ptr_t_, ptr %5, i32 0, i32 2
  %7 = load ptr, ptr %6, align 8
  %8 = load i32, ptr %4, align 4
  %9 = sext i32 %8 to i64
  %10 = getelementptr inbounds ptr, ptr %7, i64 %9
  %11 = load ptr, ptr %10, align 8
  ret ptr %11
}

; Function Attrs: nounwind uwtable
define internal void @Abc_LatchSetInit0(ptr noundef %0) #0 {
  %2 = alloca ptr, align 8
  store ptr %0, ptr %2, align 8
  %3 = load ptr, ptr %2, align 8
  %4 = getelementptr inbounds %struct.Abc_Obj_t_, ptr %3, i32 0, i32 6
  %5 = inttoptr i64 1 to ptr
  store ptr %5, ptr %4, align 8
  ret void
}

; Function Attrs: nounwind uwtable
define internal i32 @Abc_ObjIsLatch(ptr noundef %0) #0 {
  %2 = alloca ptr, align 8
  store ptr %0, ptr %2, align 8
  %3 = load ptr, ptr %2, align 8
  %4 = getelementptr inbounds %struct.Abc_Obj_t_, ptr %3, i32 0, i32 3
  %5 = load i32, ptr %4, align 4
  %6 = and i32 %5, 15
  %7 = icmp eq i32 %6, 8
  %8 = zext i1 %7 to i32
  ret i32 %8
}

; Function Attrs: nounwind uwtable
define internal ptr @Abc_NtkBox(ptr noundef %0, i32 noundef %1) #0 {
  %3 = alloca ptr, align 8
  %4 = alloca i32, align 4
  store ptr %0, ptr %3, align 8
  store i32 %1, ptr %4, align 4
  %5 = load ptr, ptr %3, align 8
  %6 = getelementptr inbounds %struct.Abc_Ntk_t_, ptr %5, i32 0, i32 11
  %7 = load ptr, ptr %6, align 8
  %8 = load i32, ptr %4, align 4
  %9 = call ptr @Vec_PtrEntry(ptr noundef %7, i32 noundef %8)
  ret ptr %9
}

; Function Attrs: nounwind uwtable
define internal i32 @Vec_PtrSize(ptr noundef %0) #0 {
  %2 = alloca ptr, align 8
  store ptr %0, ptr %2, align 8
  %3 = load ptr, ptr %2, align 8
  %4 = getelementptr inbounds %struct.Vec_Ptr_t_, ptr %3, i32 0, i32 1
  %5 = load i32, ptr %4, align 4
  ret i32 %5
}

; Function Attrs: nounwind uwtable
define internal i32 @Abc_NtkLatchNum(ptr noundef %0) #0 {
  %2 = alloca ptr, align 8
  store ptr %0, ptr %2, align 8
  %3 = load ptr, ptr %2, align 8
  %4 = getelementptr inbounds %struct.Abc_Ntk_t_, ptr %3, i32 0, i32 13
  %5 = getelementptr inbounds [11 x i32], ptr %4, i64 0, i64 8
  %6 = load i32, ptr %5, align 8
  ret i32 %6
}

; Function Attrs: nounwind uwtable
define internal i32 @Aig_ManRegNum(ptr noundef %0) #0 {
  %2 = alloca ptr, align 8
  store ptr %0, ptr %2, align 8
  %3 = load ptr, ptr %2, align 8
  %4 = getelementptr inbounds %struct.Aig_Man_t_, ptr %3, i32 0, i32 8
  %5 = load i32, ptr %4, align 8
  ret i32 %5
}

; Function Attrs: nounwind uwtable
define ptr @Abc_NtkDarSeqSweep2(ptr noundef %0, ptr noundef %1) #0 {
  %3 = alloca ptr, align 8
  %4 = alloca ptr, align 8
  %5 = alloca ptr, align 8
  %6 = alloca ptr, align 8
  %7 = alloca ptr, align 8
  %8 = alloca ptr, align 8
  %9 = alloca ptr, align 8
  %10 = alloca i32, align 4
  store ptr %0, ptr %4, align 8
  store ptr %1, ptr %5, align 8
  %11 = load ptr, ptr %4, align 8
  %12 = call ptr @Abc_NtkToDar(ptr noundef %11, i32 noundef 0, i32 noundef 1)
  store ptr %12, ptr %7, align 8
  %13 = load ptr, ptr %7, align 8
  %14 = icmp eq ptr %13, null
  br i1 %14, label %15, label %16

15:                                               ; preds = %2
  store ptr null, ptr %3, align 8
  br label %74

16:                                               ; preds = %2
  %17 = load ptr, ptr %7, align 8
  store ptr %17, ptr %8, align 8
  %18 = load ptr, ptr %5, align 8
  %19 = call ptr @Ssw_SignalCorrespondence(ptr noundef %17, ptr noundef %18)
  store ptr %19, ptr %7, align 8
  %20 = load ptr, ptr %5, align 8
  %21 = getelementptr inbounds %struct.Ssw_Pars_t_, ptr %20, i32 0, i32 29
  %22 = load i32, ptr %21, align 4
  %23 = icmp ne i32 %22, 0
  br i1 %23, label %24, label %27

24:                                               ; preds = %16
  %25 = load ptr, ptr %4, align 8
  %26 = load ptr, ptr %8, align 8
  call void @Abc_NtkPrintLatchEquivClasses(ptr noundef %25, ptr noundef %26)
  br label %27

27:                                               ; preds = %24, %16
  %28 = load ptr, ptr %8, align 8
  call void @Aig_ManStop(ptr noundef %28)
  %29 = load ptr, ptr %7, align 8
  %30 = icmp eq ptr %29, null
  br i1 %30, label %31, label %32

31:                                               ; preds = %27
  store ptr null, ptr %3, align 8
  br label %74

32:                                               ; preds = %27
  %33 = load ptr, ptr %7, align 8
  %34 = call i32 @Aig_ManRegNum(ptr noundef %33)
  %35 = load ptr, ptr %4, align 8
  %36 = call i32 @Abc_NtkLatchNum(ptr noundef %35)
  %37 = icmp slt i32 %34, %36
  br i1 %37, label %38, label %42

38:                                               ; preds = %32
  %39 = load ptr, ptr %4, align 8
  %40 = load ptr, ptr %7, align 8
  %41 = call ptr @Abc_NtkFromDarSeqSweep(ptr noundef %39, ptr noundef %40)
  store ptr %41, ptr %6, align 8
  br label %71

42:                                               ; preds = %32
  %43 = load ptr, ptr %4, align 8
  %44 = load ptr, ptr %7, align 8
  %45 = call ptr @Abc_NtkFromDar(ptr noundef %43, ptr noundef %44)
  store ptr %45, ptr %6, align 8
  store i32 0, ptr %10, align 4
  br label %46

46:                                               ; preds = %67, %42
  %47 = load i32, ptr %10, align 4
  %48 = load ptr, ptr %6, align 8
  %49 = getelementptr inbounds %struct.Abc_Ntk_t_, ptr %48, i32 0, i32 11
  %50 = load ptr, ptr %49, align 8
  %51 = call i32 @Vec_PtrSize(ptr noundef %50)
  %52 = icmp slt i32 %47, %51
  br i1 %52, label %53, label %57

53:                                               ; preds = %46
  %54 = load ptr, ptr %6, align 8
  %55 = load i32, ptr %10, align 4
  %56 = call ptr @Abc_NtkBox(ptr noundef %54, i32 noundef %55)
  store ptr %56, ptr %9, align 8
  br label %57

57:                                               ; preds = %53, %46
  %58 = phi i1 [ false, %46 ], [ true, %53 ]
  br i1 %58, label %59, label %70

59:                                               ; preds = %57
  %60 = load ptr, ptr %9, align 8
  %61 = call i32 @Abc_ObjIsLatch(ptr noundef %60)
  %62 = icmp ne i32 %61, 0
  br i1 %62, label %64, label %63

63:                                               ; preds = %59
  br label %66

64:                                               ; preds = %59
  %65 = load ptr, ptr %9, align 8
  call void @Abc_LatchSetInit0(ptr noundef %65)
  br label %66

66:                                               ; preds = %64, %63
  br label %67

67:                                               ; preds = %66
  %68 = load i32, ptr %10, align 4
  %69 = add nsw i32 %68, 1
  store i32 %69, ptr %10, align 4
  br label %46, !llvm.loop !86

70:                                               ; preds = %57
  br label %71

71:                                               ; preds = %70, %38
  %72 = load ptr, ptr %7, align 8
  call void @Aig_ManStop(ptr noundef %72)
  %73 = load ptr, ptr %6, align 8
  store ptr %73, ptr %3, align 8
  br label %74

74:                                               ; preds = %71, %31, %15
  %75 = load ptr, ptr %3, align 8
  ret ptr %75
}