; Function Attrs: nounwind uwtable
define ptr @Abc_NtkDarSeqSweep2(ptr noundef %0, ptr noundef %1) local_unnamed_addr #1 {
  %3 = tail call ptr @Abc_NtkToDar(ptr noundef %0, i32 noundef 0, i32 noundef 1)
  %4 = icmp eq ptr %3, null
  br i1 %4, label %37, label %5

5:                                                ; preds = %2
  %6 = tail call ptr @Ssw_SignalCorrespondence(ptr noundef nonnull %3, ptr noundef %1) #19
  %7 = getelementptr inbounds nuw i8, ptr %1, i64 116
  %8 = load i32, ptr %7, align 4
  %.not = icmp eq i32 %8, 0
  br i1 %.not, label %10, label %9

9:                                                ; preds = %5
  tail call void @Abc_NtkPrintLatchEquivClasses(ptr noundef %0, ptr noundef nonnull %3)
  br label %10

10:                                               ; preds = %9, %5
  tail call void @Aig_ManStop(ptr noundef nonnull %3) #19
  %11 = icmp eq ptr %6, null
  br i1 %11, label %37, label %12

12:                                               ; preds = %10
  %13 = getelementptr i8, ptr %6, i64 104
  %.val32 = load i32, ptr %13, align 8
  %14 = getelementptr i8, ptr %0, i64 128
  %.val31 = load i32, ptr %14, align 8
  %15 = icmp slt i32 %.val32, %.val31
  br i1 %15, label %16, label %18

16:                                               ; preds = %12
  %17 = tail call ptr @Abc_NtkFromDarSeqSweep(ptr noundef nonnull %0, ptr noundef nonnull %6)
  br label %.critedge

18:                                               ; preds = %12
  %19 = tail call ptr @Abc_NtkFromDar(ptr noundef nonnull %0, ptr noundef nonnull %6)
  %20 = getelementptr inbounds nuw i8, ptr %19, i64 80
  %21 = load ptr, ptr %20, align 8
  %22 = getelementptr i8, ptr %21, i64 4
  %.val34 = load i32, ptr %22, align 4
  %23 = icmp sgt i32 %.val34, 0
  br i1 %23, label %.lr.ph, label %.critedge

.lr.ph:                                           ; preds = %18, %32
  %24 = phi ptr [ %33, %32 ], [ %21, %18 ]
  %indvars.iv = phi i64 [ %indvars.iv.next, %32 ], [ 0, %18 ]
  %25 = getelementptr i8, ptr %24, i64 8
  %.val29.val = load ptr, ptr %25, align 8
  %26 = getelementptr inbounds nuw ptr, ptr %.val29.val, i64 %indvars.iv
  %27 = load ptr, ptr %26, align 8
  %28 = getelementptr i8, ptr %27, i64 20
  %.val30 = load i32, ptr %28, align 4
  %29 = and i32 %.val30, 15
  %.not33 = icmp eq i32 %29, 8
  br i1 %.not33, label %30, label %32

30:                                               ; preds = %.lr.ph
  %31 = getelementptr inbounds nuw i8, ptr %27, i64 56
  store ptr inttoptr (i64 1 to ptr), ptr %31, align 8
  %.pre = load ptr, ptr %20, align 8
  br label %32

32:                                               ; preds = %30, %.lr.ph
  %33 = phi ptr [ %.pre, %30 ], [ %24, %.lr.ph ]
  %indvars.iv.next = add nuw nsw i64 %indvars.iv, 1
  %34 = getelementptr i8, ptr %33, i64 4
  %.val = load i32, ptr %34, align 4
  %35 = sext i32 %.val to i64
  %36 = icmp slt i64 %indvars.iv.next, %35
  br i1 %36, label %.lr.ph, label %.critedge, !llvm.loop !87

.critedge:                                        ; preds = %32, %18, %16
  %.025 = phi ptr [ %17, %16 ], [ %19, %18 ], [ %19, %32 ]
  tail call void @Aig_ManStop(ptr noundef nonnull %6) #19
  br label %37

37:                                               ; preds = %10, %2, %.critedge
  %.024 = phi ptr [ %.025, %.critedge ], [ null, %2 ], [ null, %10 ]
  ret ptr %.024
}